target datalayout = "e-m:e-p270:32:32-p271:32:32-p272:64:64-i64:64-i128:128-f80:128-n8:16:32:64-S128"
target triple = "x86_64-pc-linux-gnu"

%struct.ItemPointerData = type { %struct.BlockIdData, i16 }
%struct.BlockIdData = type { i16, i16 }
%struct.ginxlogRecompressDataLeaf = type { i16 }
%struct.GinPostingList = type { %struct.ItemPointerData, i16, [0 x i8] }

@.str.18 = private unnamed_addr constant [14 x i8] c" %d segments:\00", align 1
@.str.19 = private unnamed_addr constant [19 x i8] c" %d (add %d items)\00", align 1
@.str.20 = private unnamed_addr constant [13 x i8] c" %d (delete)\00", align 1
@.str.21 = private unnamed_addr constant [13 x i8] c" %d (insert)\00", align 1
@.str.22 = private unnamed_addr constant [14 x i8] c" %d (replace)\00", align 1
@.str.23 = private unnamed_addr constant [26 x i8] c" %d unknown action %d ???\00", align 1

; Function Attrs: nounwind uwtable
define internal void @desc_recompress_leaf(ptr noundef %0, ptr noundef %1) #0 {
  %3 = alloca ptr, align 8
  %4 = alloca ptr, align 8
  %5 = alloca i32, align 4
  %6 = alloca ptr, align 8
  %7 = alloca i8, align 1
  %8 = alloca i8, align 1
  %9 = alloca i16, align 2
  %10 = alloca i32, align 4
  %11 = alloca i32, align 4
  store ptr %0, ptr %3, align 8
  store ptr %1, ptr %4, align 8
  call void @llvm.lifetime.start.p0(i64 4, ptr %5) #5
  call void @llvm.lifetime.start.p0(i64 8, ptr %6) #5
  %12 = load ptr, ptr %4, align 8
  %13 = getelementptr inbounds nuw i8, ptr %12, i64 2
  store ptr %13, ptr %6, align 8
  %14 = load ptr, ptr %3, align 8
  %15 = load ptr, ptr %4, align 8
  %16 = getelementptr inbounds nuw %struct.ginxlogRecompressDataLeaf, ptr %15, i32 0, i32 0
  %17 = load i16, ptr %16, align 2
  %18 = zext i16 %17 to i32
  call void (ptr, ptr, ...) @appendStringInfo(ptr noundef %14, ptr noundef @.str.18, i32 noundef %18)
  store i32 0, ptr %5, align 4
  br label %19

19:                                               ; preds = %99, %2
  %20 = load i32, ptr %5, align 4
  %21 = load ptr, ptr %4, align 8
  %22 = getelementptr inbounds nuw %struct.ginxlogRecompressDataLeaf, ptr %21, i32 0, i32 0
  %23 = load i16, ptr %22, align 2
  %24 = zext i16 %23 to i32
  %25 = icmp slt i32 %20, %24
  br i1 %25, label %26, label %102

26:                                               ; preds = %19
  call void @llvm.lifetime.start.p0(i64 1, ptr %7) #5
  %27 = load ptr, ptr %6, align 8
  %28 = getelementptr inbounds nuw i8, ptr %27, i32 1
  store ptr %28, ptr %6, align 8
  %29 = load i8, ptr %27, align 1
  store i8 %29, ptr %7, align 1
  call void @llvm.lifetime.start.p0(i64 1, ptr %8) #5
  %30 = load ptr, ptr %6, align 8
  %31 = getelementptr inbounds nuw i8, ptr %30, i32 1
  store ptr %31, ptr %6, align 8
  %32 = load i8, ptr %30, align 1
  store i8 %32, ptr %8, align 1
  call void @llvm.lifetime.start.p0(i64 2, ptr %9) #5
  store i16 0, ptr %9, align 2
  call void @llvm.lifetime.start.p0(i64 4, ptr %10) #5
  store i32 0, ptr %10, align 4
  %33 = load i8, ptr %8, align 1
  %34 = zext i8 %33 to i32
  %35 = icmp eq i32 %34, 2
  br i1 %35, label %40, label %36

36:                                               ; preds = %26
  %37 = load i8, ptr %8, align 1
  %38 = zext i8 %37 to i32
  %39 = icmp eq i32 %38, 3
  br i1 %39, label %40, label %55

40:                                               ; preds = %36, %26
  %41 = load ptr, ptr %6, align 8
  %42 = getelementptr inbounds nuw %struct.GinPostingList, ptr %41, i32 0, i32 1
  %43 = load i16, ptr %42, align 2
  %44 = zext i16 %43 to i64
  %45 = add i64 %44, 1
  %46 = and i64 %45, -2
  %47 = add i64 8, %46
  %48 = trunc i64 %47 to i32
  store i32 %48, ptr %10, align 4
  %49 = load i32, ptr %10, align 4
  %50 = sext i32 %49 to i64
  %51 = add i64 %50, 1
  %52 = and i64 %51, -2
  %53 = load ptr, ptr %6, align 8
  %54 = getelementptr inbounds nuw i8, ptr %53, i64 %52
  store ptr %54, ptr %6, align 8
  br label %55

55:                                               ; preds = %40, %36
  %56 = load i8, ptr %8, align 1
  %57 = zext i8 %56 to i32
  %58 = icmp eq i32 %57, 4
  br i1 %58, label %59, label %68

59:                                               ; preds = %55
  %60 = load ptr, ptr %6, align 8
  call void @llvm.memcpy.p0.p0.i64(ptr align 2 %9, ptr align 1 %60, i64 2, i1 false)
  %61 = load ptr, ptr %6, align 8
  %62 = getelementptr inbounds nuw i8, ptr %61, i64 2
  store ptr %62, ptr %6, align 8
  %63 = load i16, ptr %9, align 2
  %64 = zext i16 %63 to i64
  %65 = mul i64 %64, 6
  %66 = load ptr, ptr %6, align 8
  %67 = getelementptr inbounds nuw i8, ptr %66, i64 %65
  store ptr %67, ptr %6, align 8
  br label %68

68:                                               ; preds = %59, %55
  %69 = load i8, ptr %8, align 1
  %70 = zext i8 %69 to i32
  switch i32 %70, label %89 [
    i32 4, label %71
    i32 1, label %77
    i32 2, label %81
    i32 3, label %85
  ]

71:                                               ; preds = %68
  %72 = load ptr, ptr %3, align 8
  %73 = load i8, ptr %7, align 1
  %74 = zext i8 %73 to i32
  %75 = load i16, ptr %9, align 2
  %76 = zext i16 %75 to i32
  call void (ptr, ptr, ...) @appendStringInfo(ptr noundef %72, ptr noundef @.str.19, i32 noundef %74, i32 noundef %76)
  br label %95

77:                                               ; preds = %68
  %78 = load ptr, ptr %3, align 8
  %79 = load i8, ptr %7, align 1
  %80 = zext i8 %79 to i32
  call void (ptr, ptr, ...) @appendStringInfo(ptr noundef %78, ptr noundef @.str.20, i32 noundef %80)
  br label %95

81:                                               ; preds = %68
  %82 = load ptr, ptr %3, align 8
  %83 = load i8, ptr %7, align 1
  %84 = zext i8 %83 to i32
  call void (ptr, ptr, ...) @appendStringInfo(ptr noundef %82, ptr noundef @.str.21, i32 noundef %84)
  br label %95

85:                                               ; preds = %68
  %86 = load ptr, ptr %3, align 8
  %87 = load i8, ptr %7, align 1
  %88 = zext i8 %87 to i32
  call void (ptr, ptr, ...) @appendStringInfo(ptr noundef %86, ptr noundef @.str.22, i32 noundef %88)
  br label %95

89:                                               ; preds = %68
  %90 = load ptr, ptr %3, align 8
  %91 = load i8, ptr %7, align 1
  %92 = zext i8 %91 to i32
  %93 = load i8, ptr %8, align 1
  %94 = zext i8 %93 to i32
  call void (ptr, ptr, ...) @appendStringInfo(ptr noundef %90, ptr noundef @.str.23, i32 noundef %92, i32 noundef %94)
  store i32 1, ptr %11, align 4
  br label %96

95:                                               ; preds = %85, %81, %77, %71
  store i32 0, ptr %11, align 4
  br label %96

96:                                               ; preds = %95, %89
  call void @llvm.lifetime.end.p0(i64 4, ptr %10) #5
  call void @llvm.lifetime.end.p0(i64 2, ptr %9) #5
  call void @llvm.lifetime.end.p0(i64 1, ptr %8) #5
  call void @llvm.lifetime.end.p0(i64 1, ptr %7) #5
  %97 = load i32, ptr %11, align 4
  switch i32 %97, label %103 [
    i32 0, label %98
  ]

98:                                               ; preds = %96
  br label %99

99:                                               ; preds = %98
  %100 = load i32, ptr %5, align 4
  %101 = add i32 %100, 1
  store i32 %101, ptr %5, align 4
  br label %19, !llvm.loop !6

102:                                              ; preds = %19
  store i32 0, ptr %11, align 4
  br label %103

103:                                              ; preds = %102, %96
  call void @llvm.lifetime.end.p0(i64 8, ptr %6) #5
  call void @llvm.lifetime.end.p0(i64 4, ptr %5) #5
  %104 = load i32, ptr %11, align 4
  switch i32 %104, label %106 [
    i32 0, label %105
    i32 1, label %105
  ]

105:                                              ; preds = %103, %103
  ret void

106:                                              ; preds = %103
  unreachable
}