; Function Attrs: nounwind uwtable
define internal fastcc void @desc_recompress_leaf(ptr noundef %0, ptr noundef readonly captures(none) %1) unnamed_addr #0 {
  %3 = load i16, ptr %1, align 2
  %4 = zext i16 %3 to i32
  tail call void (ptr, ptr, ...) @appendStringInfo(ptr noundef %0, ptr noundef nonnull @.str.18, i32 noundef %4) #3
  %5 = load i16, ptr %1, align 2
  %.not = icmp eq i16 %5, 0
  br i1 %.not, label %.loopexit, label %.lr.ph.preheader

.lr.ph.preheader:                                 ; preds = %2
  %6 = getelementptr inbounds nuw i8, ptr %1, i64 2
  br label %.lr.ph

.lr.ph:                                           ; preds = %.lr.ph.preheader, %37
  %.03446 = phi i32 [ %38, %37 ], [ 0, %.lr.ph.preheader ]
  %.03545 = phi ptr [ %.240, %37 ], [ %6, %.lr.ph.preheader ]
  %7 = getelementptr inbounds nuw i8, ptr %.03545, i64 1
  %8 = load i8, ptr %.03545, align 1
  %9 = getelementptr inbounds nuw i8, ptr %.03545, i64 2
  %10 = load i8, ptr %7, align 1
  %11 = and i8 %10, -2
  %or.cond = icmp eq i8 %11, 2
  br i1 %or.cond, label %.thread, label %20

.thread:                                          ; preds = %.lr.ph
  %12 = getelementptr inbounds nuw i8, ptr %.03545, i64 8
  %13 = load i16, ptr %12, align 2
  %14 = zext i16 %13 to i64
  %15 = add nuw nsw i64 %14, 1
  %16 = and i64 %15, 131070
  %17 = add nuw nsw i64 %16, 9
  %18 = and i64 %17, 262142
  %19 = getelementptr inbounds nuw i8, ptr %9, i64 %18
  br label %28

20:                                               ; preds = %.lr.ph
  %21 = icmp eq i8 %10, 4
  br i1 %21, label %.thread37, label %28

.thread37:                                        ; preds = %20
  %.0.copyload = load i16, ptr %9, align 1
  %22 = getelementptr inbounds nuw i8, ptr %.03545, i64 4
  %23 = zext i16 %.0.copyload to i64
  %24 = mul nuw nsw i64 %23, 6
  %25 = getelementptr inbounds nuw i8, ptr %22, i64 %24
  %26 = zext i16 %.0.copyload to i32
  %27 = zext i8 %8 to i32
  tail call void (ptr, ptr, ...) @appendStringInfo(ptr noundef %0, ptr noundef nonnull @.str.19, i32 noundef %27, i32 noundef %26) #3
  br label %37

28:                                               ; preds = %.thread, %20
  %.2 = phi ptr [ %9, %20 ], [ %19, %.thread ]
  switch i8 %10, label %.critedge [
    i8 3, label %33
    i8 1, label %29
    i8 2, label %31
  ]

29:                                               ; preds = %28
  %30 = zext i8 %8 to i32
  tail call void (ptr, ptr, ...) @appendStringInfo(ptr noundef %0, ptr noundef nonnull @.str.20, i32 noundef %30) #3
  br label %37

31:                                               ; preds = %28
  %32 = zext i8 %8 to i32
  tail call void (ptr, ptr, ...) @appendStringInfo(ptr noundef %0, ptr noundef nonnull @.str.21, i32 noundef %32) #3
  br label %37

33:                                               ; preds = %28
  %34 = zext i8 %8 to i32
  tail call void (ptr, ptr, ...) @appendStringInfo(ptr noundef %0, ptr noundef nonnull @.str.22, i32 noundef %34) #3
  br label %37

.critedge:                                        ; preds = %28
  %35 = zext i8 %10 to i32
  %36 = zext i8 %8 to i32
  tail call void (ptr, ptr, ...) @appendStringInfo(ptr noundef %0, ptr noundef nonnull @.str.23, i32 noundef %36, i32 noundef %35) #3
  br label %.loopexit

37:                                               ; preds = %33, %31, %29, %.thread37
  %.240 = phi ptr [ %.2, %33 ], [ %.2, %31 ], [ %.2, %29 ], [ %25, %.thread37 ]
  %38 = add nuw nsw i32 %.03446, 1
  %39 = load i16, ptr %1, align 2
  %40 = zext i16 %39 to i32
  %41 = icmp samesign ult i32 %38, %40
  br i1 %41, label %.lr.ph, label %.loopexit, !llvm.loop !6

.loopexit:                                        ; preds = %37, %2, %.critedge
  ret void
}